; Function Attrs: inlinehint mustprogress nounwind optsize uwtable
define internal noundef ptr @"_ZZN8nanobind6detail11func_createILb0ELb1EZL29nanobind_init_test_chrono_extRNS_7module_EE3$_4NSt6chrono10time_pointINS5_3_V212steady_clockENS5_8durationIlSt5ratioILl1ELl1000000000EEEEEEJETpTnmJEJNS_5scopeENS_4nameEEEEP7_objectOT1_PFT2_DpT3_ESt16integer_sequenceImJXspT4_EEEDpRKT5_ENUlPvPSH_PhNS_9rv_policyEPNS0_12cleanup_listEE_8__invokeESV_SW_SX_SY_S10_"(ptr readnone captures(none) %0, ptr readnone captures(none) %1, ptr readnone captures(none) %2, i32 noundef %3, ptr noundef %4) #8 align 2 {
  %6 = alloca %"class.std::chrono::time_point.52", align 8
  call void @llvm.lifetime.start.p0(i64 8, ptr nonnull %6) #16
  %7 = tail call i64 @_ZNSt6chrono3_V212steady_clock3nowEv() #17
  store i64 %7, ptr %6, align 8
  %8 = call ptr @_ZN8nanobind6detail15duration_casterINSt6chrono10time_pointINS2_3_V212steady_clockENS2_8durationIlSt5ratioILl1ELl1000000000EEEEEEE8from_cppERKSA_NS_9rv_policyEPNS0_12cleanup_listE(ptr noundef nonnull align 8 dereferenceable(8) %6, i32 noundef %3, ptr noundef %4) #17
  call void @llvm.lifetime.end.p0(i64 8, ptr nonnull %6) #16
  ret ptr %8
}